target datalayout = "e-m:e-p270:32:32-p271:32:32-p272:64:64-i64:64-i128:128-f80:128-n8:16:32:64-S128"
target triple = "x86_64-pc-linux-gnu"

; Function Attrs: mustprogress nounwind uwtable
define dso_local noundef double @_ZN4absl15random_internal6erfinvEd(double noundef %0) #0 {
  %2 = alloca double, align 8
  %3 = alloca double, align 8
  %4 = alloca double, align 8
  store double %0, ptr %2, align 8, !tbaa !11
  call void @llvm.lifetime.start.p0(i64 8, ptr %3) #12
  store double 0.000000e+00, ptr %3, align 8, !tbaa !11
  call void @llvm.lifetime.start.p0(i64 8, ptr %4) #12
  store double 0.000000e+00, ptr %4, align 8, !tbaa !11
  %5 = load double, ptr %2, align 8, !tbaa !11
  %6 = fsub double 1.000000e+00, %5
  %7 = load double, ptr %2, align 8, !tbaa !11
  %8 = fadd double 1.000000e+00, %7
  %9 = fmul double %6, %8
  %10 = call double @log(double noundef %9) #12, !tbaa !20
  %11 = fneg double %10
  store double %11, ptr %3, align 8, !tbaa !11
  %12 = load double, ptr %3, align 8, !tbaa !11
  %13 = fcmp olt double %12, 6.250000e+00
  br i1 %13, label %14, label %83

14:                                               ; preds = %1
  %15 = load double, ptr %3, align 8, !tbaa !11
  %16 = fsub double %15, 3.125000e+00
  store double %16, ptr %3, align 8, !tbaa !11
  store double 0xBBB135D2E746E627, ptr %4, align 8, !tbaa !11
  %17 = load double, ptr %4, align 8, !tbaa !11
  %18 = load double, ptr %3, align 8, !tbaa !11
  %19 = call double @llvm.fma.f64(double %17, double %18, double 0xBC08DDF93324D327)
  store double %19, ptr %4, align 8, !tbaa !11
  %20 = load double, ptr %4, align 8, !tbaa !11
  %21 = load double, ptr %3, align 8, !tbaa !11
  %22 = call double @llvm.fma.f64(double %20, double %21, double 0x3C37B83EEF0B7C9F)
  store double %22, ptr %4, align 8, !tbaa !11
  %23 = load double, ptr %4, align 8, !tbaa !11
  %24 = load double, ptr %3, align 8, !tbaa !11
  %25 = call double @llvm.fma.f64(double %23, double %24, double 0x3C69BA72CD589B91)
  store double %25, ptr %4, align 8, !tbaa !11
  %26 = load double, ptr %4, align 8, !tbaa !11
  %27 = load double, ptr %3, align 8, !tbaa !11
  %28 = call double @llvm.fma.f64(double %26, double %27, double 0xBCA33689090A6B96)
  store double %28, ptr %4, align 8, !tbaa !11
  %29 = load double, ptr %4, align 8, !tbaa !11
  %30 = load double, ptr %3, align 8, !tbaa !11
  %31 = call double @llvm.fma.f64(double %29, double %30, double 0x3C782E11898132E0)
  store double %31, ptr %4, align 8, !tbaa !11
  %32 = load double, ptr %4, align 8, !tbaa !11
  %33 = load double, ptr %3, align 8, !tbaa !11
  %34 = call double @llvm.fma.f64(double %32, double %33, double 0x3CFDE4ACFD9E26BA)
  store double %34, ptr %4, align 8, !tbaa !11
  %35 = load double, ptr %4, align 8, !tbaa !11
  %36 = load double, ptr %3, align 8, !tbaa !11
  %37 = call double @llvm.fma.f64(double %35, double %36, double 0xBD26D33EED66C487)
  store double %37, ptr %4, align 8, !tbaa !11
  %38 = load double, ptr %4, align 8, !tbaa !11
  %39 = load double, ptr %3, align 8, !tbaa !11
  %40 = call double @llvm.fma.f64(double %38, double %39, double 0xBD36F2167040D8E2)
  store double %40, ptr %4, align 8, !tbaa !11
  %41 = load double, ptr %4, align 8, !tbaa !11
  %42 = load double, ptr %3, align 8, !tbaa !11
  %43 = call double @llvm.fma.f64(double %41, double %42, double 0x3D872A22C2D77E20)
  store double %43, ptr %4, align 8, !tbaa !11
  %44 = load double, ptr %4, align 8, !tbaa !11
  %45 = load double, ptr %3, align 8, !tbaa !11
  %46 = call double @llvm.fma.f64(double %44, double %45, double 0xBDAC8859C4E5C0AF)
  store double %46, ptr %4, align 8, !tbaa !11
  %47 = load double, ptr %4, align 8, !tbaa !11
  %48 = load double, ptr %3, align 8, !tbaa !11
  %49 = call double @llvm.fma.f64(double %47, double %48, double 0xBDCDC583D118A561)
  store double %49, ptr %4, align 8, !tbaa !11
  %50 = load double, ptr %4, align 8, !tbaa !11
  %51 = load double, ptr %3, align 8, !tbaa !11
  %52 = call double @llvm.fma.f64(double %50, double %51, double 0x3E120F47CCF46B3C)
  store double %52, ptr %4, align 8, !tbaa !11
  %53 = load double, ptr %4, align 8, !tbaa !11
  %54 = load double, ptr %3, align 8, !tbaa !11
  %55 = call double @llvm.fma.f64(double %53, double %54, double 0xBE31A9E38DC84D60)
  store double %55, ptr %4, align 8, !tbaa !11
  %56 = load double, ptr %4, align 8, !tbaa !11
  %57 = load double, ptr %3, align 8, !tbaa !11
  %58 = call double @llvm.fma.f64(double %56, double %57, double 0xBE5F36CD6D3D46A9)
  store double %58, ptr %4, align 8, !tbaa !11
  %59 = load double, ptr %4, align 8, !tbaa !11
  %60 = load double, ptr %3, align 8, !tbaa !11
  %61 = call double @llvm.fma.f64(double %59, double %60, double 0x3E9C6B4F5D03B787)
  store double %61, ptr %4, align 8, !tbaa !11
  %62 = load double, ptr %4, align 8, !tbaa !11
  %63 = load double, ptr %3, align 8, !tbaa !11
  %64 = call double @llvm.fma.f64(double %62, double %63, double 0xBEB6E8A5434AE8A2)
  store double %64, ptr %4, align 8, !tbaa !11
  %65 = load double, ptr %4, align 8, !tbaa !11
  %66 = load double, ptr %3, align 8, !tbaa !11
  %67 = call double @llvm.fma.f64(double %65, double %66, double 0xBEED1D1F7B8736F6)
  store double %67, ptr %4, align 8, !tbaa !11
  %68 = load double, ptr %4, align 8, !tbaa !11
  %69 = load double, ptr %3, align 8, !tbaa !11
  %70 = call double @llvm.fma.f64(double %68, double %69, double 0x3F2879C2A212F024)
  store double %70, ptr %4, align 8, !tbaa !11
  %71 = load double, ptr %4, align 8, !tbaa !11
  %72 = load double, ptr %3, align 8, !tbaa !11
  %73 = call double @llvm.fma.f64(double %71, double %72, double 0xBF4845769484FCA8)
  store double %73, ptr %4, align 8, !tbaa !11
  %74 = load double, ptr %4, align 8, !tbaa !11
  %75 = load double, ptr %3, align 8, !tbaa !11
  %76 = call double @llvm.fma.f64(double %74, double %75, double 0xBF78B6C33114F909)
  store double %76, ptr %4, align 8, !tbaa !11
  %77 = load double, ptr %4, align 8, !tbaa !11
  %78 = load double, ptr %3, align 8, !tbaa !11
  %79 = call double @llvm.fma.f64(double %77, double %78, double 0x3FCEBD80D9B13E28)
  store double %79, ptr %4, align 8, !tbaa !11
  %80 = load double, ptr %4, align 8, !tbaa !11
  %81 = load double, ptr %3, align 8, !tbaa !11
  %82 = call double @llvm.fma.f64(double %80, double %81, double 0x3FFA755E7C99AE86)
  store double %82, ptr %4, align 8, !tbaa !11
  br label %197

83:                                               ; preds = %1
  %84 = load double, ptr %3, align 8, !tbaa !11
  %85 = fcmp olt double %84, 1.600000e+01
  br i1 %85, label %86, label %144

86:                                               ; preds = %83
  %87 = load double, ptr %3, align 8, !tbaa !11
  %88 = call double @sqrt(double noundef %87) #12, !tbaa !20
  %89 = fsub double %88, 3.250000e+00
  store double %89, ptr %3, align 8, !tbaa !11
  store double 0x3E23040F87DBD932, ptr %4, align 8, !tbaa !11
  %90 = load double, ptr %4, align 8, !tbaa !11
  %91 = load double, ptr %3, align 8, !tbaa !11
  %92 = call double @llvm.fma.f64(double %90, double %91, double 0x3E785CBE52878635)
  store double %92, ptr %4, align 8, !tbaa !11
  %93 = load double, ptr %4, align 8, !tbaa !11
  %94 = load double, ptr %3, align 8, !tbaa !11
  %95 = call double @llvm.fma.f64(double %93, double %94, double 0xBE92777453DD3955)
  store double %95, ptr %4, align 8, !tbaa !11
  %96 = load double, ptr %4, align 8, !tbaa !11
  %97 = load double, ptr %3, align 8, !tbaa !11
  %98 = call double @llvm.fma.f64(double %96, double %97, double 0x3E5395ABCD554C6C)
  store double %98, ptr %4, align 8, !tbaa !11
  %99 = load double, ptr %4, align 8, !tbaa !11
  %100 = load double, ptr %3, align 8, !tbaa !11
  %101 = call double @llvm.fma.f64(double %99, double %100, double 0x3EB936388A3790AD)
  store double %101, ptr %4, align 8, !tbaa !11
  %102 = load double, ptr %4, align 8, !tbaa !11
  %103 = load double, ptr %3, align 8, !tbaa !11
  %104 = call double @llvm.fma.f64(double %102, double %103, double 0xBED0D5DB812B5083)
  store double %104, ptr %4, align 8, !tbaa !11
  %105 = load double, ptr %4, align 8, !tbaa !11
  %106 = load double, ptr %3, align 8, !tbaa !11
  %107 = call double @llvm.fma.f64(double %105, double %106, double 0x3EC8860CD5D652F6)
  store double %107, ptr %4, align 8, !tbaa !11
  %108 = load double, ptr %4, align 8, !tbaa !11
  %109 = load double, ptr %3, align 8, !tbaa !11
  %110 = call double @llvm.fma.f64(double %108, double %109, double 0x3EEA29A0CACDFB23)
  store double %110, ptr %4, align 8, !tbaa !11
  %111 = load double, ptr %4, align 8, !tbaa !11
  %112 = load double, ptr %3, align 8, !tbaa !11
  %113 = call double @llvm.fma.f64(double %111, double %112, double 0xBF08CEF1F80281F2)
  store double %113, ptr %4, align 8, !tbaa !11
  %114 = load double, ptr %4, align 8, !tbaa !11
  %115 = load double, ptr %3, align 8, !tbaa !11
  %116 = call double @llvm.fma.f64(double %114, double %115, double 0x3F11E684D0B9188A)
  store double %116, ptr %4, align 8, !tbaa !11
  %117 = load double, ptr %4, align 8, !tbaa !11
  %118 = load double, ptr %3, align 8, !tbaa !11
  %119 = call double @llvm.fma.f64(double %117, double %118, double 0x3EF932CD54C8A222)
  store double %119, ptr %4, align 8, !tbaa !11
  %120 = load double, ptr %4, align 8, !tbaa !11
  %121 = load double, ptr %3, align 8, !tbaa !11
  %122 = call double @llvm.fma.f64(double %120, double %121, double 0xBF37448A89EF8AA3)
  store double %122, ptr %4, align 8, !tbaa !11
  %123 = load double, ptr %4, align 8, !tbaa !11
  %124 = load double, ptr %3, align 8, !tbaa !11
  %125 = call double @llvm.fma.f64(double %123, double %124, double 0x3F4F3CC55AD40C25)
  store double %125, ptr %4, align 8, !tbaa !11
  %126 = load double, ptr %4, align 8, !tbaa !11
  %127 = load double, ptr %3, align 8, !tbaa !11
  %128 = call double @llvm.fma.f64(double %126, double %127, double 0xBF5BA924132F38B1)
  store double %128, ptr %4, align 8, !tbaa !11
  %129 = load double, ptr %4, align 8, !tbaa !11
  %130 = load double, ptr %3, align 8, !tbaa !11
  %131 = call double @llvm.fma.f64(double %129, double %130, double 0x3F6468EECA533CF8)
  store double %131, ptr %4, align 8, !tbaa !11
  %132 = load double, ptr %4, align 8, !tbaa !11
  %133 = load double, ptr %3, align 8, !tbaa !11
  %134 = call double @llvm.fma.f64(double %132, double %133, double 0xBF6EBADABB891BBD)
  store double %134, ptr %4, align 8, !tbaa !11
  %135 = load double, ptr %4, align 8, !tbaa !11
  %136 = load double, ptr %3, align 8, !tbaa !11
  %137 = call double @llvm.fma.f64(double %135, double %136, double 0x3F75FFCFE5B76AFC)
  store double %137, ptr %4, align 8, !tbaa !11
  %138 = load double, ptr %4, align 8, !tbaa !11
  %139 = load double, ptr %3, align 8, !tbaa !11
  %140 = call double @llvm.fma.f64(double %138, double %139, double 0x3FF0158A6D641D39)
  store double %140, ptr %4, align 8, !tbaa !11
  %141 = load double, ptr %4, align 8, !tbaa !11
  %142 = load double, ptr %3, align 8, !tbaa !11
  %143 = call double @llvm.fma.f64(double %141, double %142, double 0x4008ABCC380D5A48)
  store double %143, ptr %4, align 8, !tbaa !11
  br label %196

144:                                              ; preds = %83
  %145 = load double, ptr %3, align 8, !tbaa !11
  %146 = call double @sqrt(double noundef %145) #12, !tbaa !20
  %147 = fsub double %146, 5.000000e+00
  store double %147, ptr %3, align 8, !tbaa !11
  store double 0xBDBDCEC3A7785389, ptr %4, align 8, !tbaa !11
  %148 = load double, ptr %4, align 8, !tbaa !11
  %149 = load double, ptr %3, align 8, !tbaa !11
  %150 = call double @llvm.fma.f64(double %148, double %149, double 0xBDF18FEEC0E38727)
  store double %150, ptr %4, align 8, !tbaa !11
  %151 = load double, ptr %4, align 8, !tbaa !11
  %152 = load double, ptr %3, align 8, !tbaa !11
  %153 = call double @llvm.fma.f64(double %151, double %152, double 0x3E19E6BF2DDA45E3)
  store double %153, ptr %4, align 8, !tbaa !11
  %154 = load double, ptr %4, align 8, !tbaa !11
  %155 = load double, ptr %3, align 8, !tbaa !11
  %156 = call double @llvm.fma.f64(double %154, double %155, double 0xBE30468FB24E2F5F)
  store double %156, ptr %4, align 8, !tbaa !11
  %157 = load double, ptr %4, align 8, !tbaa !11
  %158 = load double, ptr %3, align 8, !tbaa !11
  %159 = call double @llvm.fma.f64(double %157, double %158, double 0x3E405AC6A8FBA182)
  store double %159, ptr %4, align 8, !tbaa !11
  %160 = load double, ptr %4, align 8, !tbaa !11
  %161 = load double, ptr %3, align 8, !tbaa !11
  %162 = call double @llvm.fma.f64(double %160, double %161, double 0xBE50102E495FB9C0)
  store double %162, ptr %4, align 8, !tbaa !11
  %163 = load double, ptr %4, align 8, !tbaa !11
  %164 = load double, ptr %3, align 8, !tbaa !11
  %165 = call double @llvm.fma.f64(double %163, double %164, double 0x3E5F4C20E1334AF8)
  store double %165, ptr %4, align 8, !tbaa !11
  %166 = load double, ptr %4, align 8, !tbaa !11
  %167 = load double, ptr %3, align 8, !tbaa !11
  %168 = call double @llvm.fma.f64(double %166, double %167, double 0xBE722D220FDF9C3E)
  store double %168, ptr %4, align 8, !tbaa !11
  %169 = load double, ptr %4, align 8, !tbaa !11
  %170 = load double, ptr %3, align 8, !tbaa !11
  %171 = call double @llvm.fma.f64(double %169, double %170, double 0x3E8EBC8BB824CB54)
  store double %171, ptr %4, align 8, !tbaa !11
  %172 = load double, ptr %4, align 8, !tbaa !11
  %173 = load double, ptr %3, align 8, !tbaa !11
  %174 = call double @llvm.fma.f64(double %172, double %173, double 0xBEB0A8D40EA372CC)
  store double %174, ptr %4, align 8, !tbaa !11
  %175 = load double, ptr %4, align 8, !tbaa !11
  %176 = load double, ptr %3, align 8, !tbaa !11
  %177 = call double @llvm.fma.f64(double %175, double %176, double 0x3ED2FBD29D093D2B)
  store double %177, ptr %4, align 8, !tbaa !11
  %178 = load double, ptr %4, align 8, !tbaa !11
  %179 = load double, ptr %3, align 8, !tbaa !11
  %180 = call double @llvm.fma.f64(double %178, double %179, double 0xBEF4A3497E1E0FAC)
  store double %180, ptr %4, align 8, !tbaa !11
  %181 = load double, ptr %4, align 8, !tbaa !11
  %182 = load double, ptr %3, align 8, !tbaa !11
  %183 = call double @llvm.fma.f64(double %181, double %182, double 0x3F13EBF4EB00938F)
  store double %183, ptr %4, align 8, !tbaa !11
  %184 = load double, ptr %4, align 8, !tbaa !11
  %185 = load double, ptr %3, align 8, !tbaa !11
  %186 = call double @llvm.fma.f64(double %184, double %185, double 0xBF2C2F36A8FC5D53)
  store double %186, ptr %4, align 8, !tbaa !11
  %187 = load double, ptr %4, align 8, !tbaa !11
  %188 = load double, ptr %3, align 8, !tbaa !11
  %189 = call double @llvm.fma.f64(double %187, double %188, double 0xBF222EA5DF04047C)
  store double %189, ptr %4, align 8, !tbaa !11
  %190 = load double, ptr %4, align 8, !tbaa !11
  %191 = load double, ptr %3, align 8, !tbaa !11
  %192 = call double @llvm.fma.f64(double %190, double %191, double 0x3FF02A30D1FBA0DC)
  store double %192, ptr %4, align 8, !tbaa !11
  %193 = load double, ptr %4, align 8, !tbaa !11
  %194 = load double, ptr %3, align 8, !tbaa !11
  %195 = call double @llvm.fma.f64(double %193, double %194, double 0x4013664DDD1AD7FB)
  store double %195, ptr %4, align 8, !tbaa !11
  br label %196

196:                                              ; preds = %144, %86
  br label %197

197:                                              ; preds = %196, %14
  %198 = load double, ptr %4, align 8, !tbaa !11
  %199 = load double, ptr %2, align 8, !tbaa !11
  %200 = fmul double %198, %199
  call void @llvm.lifetime.end.p0(i64 8, ptr %4) #12
  call void @llvm.lifetime.end.p0(i64 8, ptr %3) #12
  ret double %200
}