; Function Attrs: mustprogress nofree nounwind willreturn memory(write) uwtable
define dso_local noundef double @_ZN4absl15random_internal6erfinvEd(double noundef %0) local_unnamed_addr #5 {
  %2 = fsub double 1.000000e+00, %0
  %3 = fadd double %0, 1.000000e+00
  %4 = fmul double %2, %3
  %5 = tail call double @log(double noundef %4) #15, !tbaa !12
  %6 = fcmp ogt double %5, -6.250000e+00
  br i1 %6, label %7, label %31

7:                                                ; preds = %1
  %8 = fsub double -3.125000e+00, %5
  %9 = tail call double @llvm.fma.f64(double %8, double 0xBBB135D2E746E627, double 0xBC08DDF93324D327)
  %10 = tail call double @llvm.fma.f64(double %9, double %8, double 0x3C37B83EEF0B7C9F)
  %11 = tail call double @llvm.fma.f64(double %10, double %8, double 0x3C69BA72CD589B91)
  %12 = tail call double @llvm.fma.f64(double %11, double %8, double 0xBCA33689090A6B96)
  %13 = tail call double @llvm.fma.f64(double %12, double %8, double 0x3C782E11898132E0)
  %14 = tail call double @llvm.fma.f64(double %13, double %8, double 0x3CFDE4ACFD9E26BA)
  %15 = tail call double @llvm.fma.f64(double %14, double %8, double 0xBD26D33EED66C487)
  %16 = tail call double @llvm.fma.f64(double %15, double %8, double 0xBD36F2167040D8E2)
  %17 = tail call double @llvm.fma.f64(double %16, double %8, double 0x3D872A22C2D77E20)
  %18 = tail call double @llvm.fma.f64(double %17, double %8, double 0xBDAC8859C4E5C0AF)
  %19 = tail call double @llvm.fma.f64(double %18, double %8, double 0xBDCDC583D118A561)
  %20 = tail call double @llvm.fma.f64(double %19, double %8, double 0x3E120F47CCF46B3C)
  %21 = tail call double @llvm.fma.f64(double %20, double %8, double 0xBE31A9E38DC84D60)
  %22 = tail call double @llvm.fma.f64(double %21, double %8, double 0xBE5F36CD6D3D46A9)
  %23 = tail call double @llvm.fma.f64(double %22, double %8, double 0x3E9C6B4F5D03B787)
  %24 = tail call double @llvm.fma.f64(double %23, double %8, double 0xBEB6E8A5434AE8A2)
  %25 = tail call double @llvm.fma.f64(double %24, double %8, double 0xBEED1D1F7B8736F6)
  %26 = tail call double @llvm.fma.f64(double %25, double %8, double 0x3F2879C2A212F024)
  %27 = tail call double @llvm.fma.f64(double %26, double %8, double 0xBF4845769484FCA8)
  %28 = tail call double @llvm.fma.f64(double %27, double %8, double 0xBF78B6C33114F909)
  %29 = tail call double @llvm.fma.f64(double %28, double %8, double 0x3FCEBD80D9B13E28)
  %30 = tail call double @llvm.fma.f64(double %29, double %8, double 0x3FFA755E7C99AE86)
  br label %73

31:                                               ; preds = %1
  %32 = fneg double %5
  %33 = fcmp ogt double %5, -1.600000e+01
  %34 = tail call double @sqrt(double noundef %32) #15, !tbaa !12
  br i1 %33, label %35, label %55

35:                                               ; preds = %31
  %36 = fadd double %34, -3.250000e+00
  %37 = tail call double @llvm.fma.f64(double %36, double 0x3E23040F87DBD932, double 0x3E785CBE52878635)
  %38 = tail call double @llvm.fma.f64(double %37, double %36, double 0xBE92777453DD3955)
  %39 = tail call double @llvm.fma.f64(double %38, double %36, double 0x3E5395ABCD554C6C)
  %40 = tail call double @llvm.fma.f64(double %39, double %36, double 0x3EB936388A3790AD)
  %41 = tail call double @llvm.fma.f64(double %40, double %36, double 0xBED0D5DB812B5083)
  %42 = tail call double @llvm.fma.f64(double %41, double %36, double 0x3EC8860CD5D652F6)
  %43 = tail call double @llvm.fma.f64(double %42, double %36, double 0x3EEA29A0CACDFB23)
  %44 = tail call double @llvm.fma.f64(double %43, double %36, double 0xBF08CEF1F80281F2)
  %45 = tail call double @llvm.fma.f64(double %44, double %36, double 0x3F11E684D0B9188A)
  %46 = tail call double @llvm.fma.f64(double %45, double %36, double 0x3EF932CD54C8A222)
  %47 = tail call double @llvm.fma.f64(double %46, double %36, double 0xBF37448A89EF8AA3)
  %48 = tail call double @llvm.fma.f64(double %47, double %36, double 0x3F4F3CC55AD40C25)
  %49 = tail call double @llvm.fma.f64(double %48, double %36, double 0xBF5BA924132F38B1)
  %50 = tail call double @llvm.fma.f64(double %49, double %36, double 0x3F6468EECA533CF8)
  %51 = tail call double @llvm.fma.f64(double %50, double %36, double 0xBF6EBADABB891BBD)
  %52 = tail call double @llvm.fma.f64(double %51, double %36, double 0x3F75FFCFE5B76AFC)
  %53 = tail call double @llvm.fma.f64(double %52, double %36, double 0x3FF0158A6D641D39)
  %54 = tail call double @llvm.fma.f64(double %53, double %36, double 0x4008ABCC380D5A48)
  br label %73

55:                                               ; preds = %31
  %56 = fadd double %34, -5.000000e+00
  %57 = tail call double @llvm.fma.f64(double %56, double 0xBDBDCEC3A7785389, double 0xBDF18FEEC0E38727)
  %58 = tail call double @llvm.fma.f64(double %57, double %56, double 0x3E19E6BF2DDA45E3)
  %59 = tail call double @llvm.fma.f64(double %58, double %56, double 0xBE30468FB24E2F5F)
  %60 = tail call double @llvm.fma.f64(double %59, double %56, double 0x3E405AC6A8FBA182)
  %61 = tail call double @llvm.fma.f64(double %60, double %56, double 0xBE50102E495FB9C0)
  %62 = tail call double @llvm.fma.f64(double %61, double %56, double 0x3E5F4C20E1334AF8)
  %63 = tail call double @llvm.fma.f64(double %62, double %56, double 0xBE722D220FDF9C3E)
  %64 = tail call double @llvm.fma.f64(double %63, double %56, double 0x3E8EBC8BB824CB54)
  %65 = tail call double @llvm.fma.f64(double %64, double %56, double 0xBEB0A8D40EA372CC)
  %66 = tail call double @llvm.fma.f64(double %65, double %56, double 0x3ED2FBD29D093D2B)
  %67 = tail call double @llvm.fma.f64(double %66, double %56, double 0xBEF4A3497E1E0FAC)
  %68 = tail call double @llvm.fma.f64(double %67, double %56, double 0x3F13EBF4EB00938F)
  %69 = tail call double @llvm.fma.f64(double %68, double %56, double 0xBF2C2F36A8FC5D53)
  %70 = tail call double @llvm.fma.f64(double %69, double %56, double 0xBF222EA5DF04047C)
  %71 = tail call double @llvm.fma.f64(double %70, double %56, double 0x3FF02A30D1FBA0DC)
  %72 = tail call double @llvm.fma.f64(double %71, double %56, double 0x4013664DDD1AD7FB)
  br label %73

73:                                               ; preds = %35, %55, %7
  %.0 = phi double [ %30, %7 ], [ %54, %35 ], [ %72, %55 ]
  %74 = fmul double %0, %.0
  ret double %74
}